target datalayout = "e-m:e-p270:32:32-p271:32:32-p272:64:64-i64:64-i128:128-f80:128-n8:16:32:64-S128"
target triple = "x86_64-pc-linux-gnu"

%struct.seq_t = type { i64, i64, i64 }

; Function Attrs: noinline nounwind uwtable
define internal i64 @ZSTD_execSequenceEnd(ptr noundef %0, ptr noundef %1, ptr noundef byval(%struct.seq_t) align 8 %2, ptr noundef %3, ptr noundef %4, ptr noundef %5, ptr noundef %6, ptr noundef %7) #13 {
  %9 = alloca i64, align 8
  %10 = alloca ptr, align 8
  %11 = alloca ptr, align 8
  %12 = alloca ptr, align 8
  %13 = alloca ptr, align 8
  %14 = alloca ptr, align 8
  %15 = alloca ptr, align 8
  %16 = alloca ptr, align 8
  %17 = alloca ptr, align 8
  %18 = alloca i64, align 8
  %19 = alloca ptr, align 8
  %20 = alloca ptr, align 8
  %21 = alloca ptr, align 8
  %22 = alloca i32, align 4
  %23 = alloca i64, align 8
  store ptr %0, ptr %10, align 8, !tbaa !29
  store ptr %1, ptr %11, align 8, !tbaa !29
  store ptr %3, ptr %12, align 8, !tbaa !103
  store ptr %4, ptr %13, align 8, !tbaa !29
  store ptr %5, ptr %14, align 8, !tbaa !29
  store ptr %6, ptr %15, align 8, !tbaa !29
  store ptr %7, ptr %16, align 8, !tbaa !29
  call void @llvm.lifetime.start.p0(i64 8, ptr %17) #14
  %24 = load ptr, ptr %10, align 8, !tbaa !29
  %25 = getelementptr inbounds nuw %struct.seq_t, ptr %2, i32 0, i32 0
  %26 = load i64, ptr %25, align 8, !tbaa !78
  %27 = getelementptr inbounds nuw i8, ptr %24, i64 %26
  store ptr %27, ptr %17, align 8, !tbaa !29
  call void @llvm.lifetime.start.p0(i64 8, ptr %18) #14
  %28 = getelementptr inbounds nuw %struct.seq_t, ptr %2, i32 0, i32 0
  %29 = load i64, ptr %28, align 8, !tbaa !78
  %30 = getelementptr inbounds nuw %struct.seq_t, ptr %2, i32 0, i32 1
  %31 = load i64, ptr %30, align 8, !tbaa !99
  %32 = add i64 %29, %31
  store i64 %32, ptr %18, align 8, !tbaa !7
  call void @llvm.lifetime.start.p0(i64 8, ptr %19) #14
  %33 = load ptr, ptr %12, align 8, !tbaa !103
  %34 = load ptr, ptr %33, align 8, !tbaa !29
  %35 = getelementptr inbounds nuw %struct.seq_t, ptr %2, i32 0, i32 0
  %36 = load i64, ptr %35, align 8, !tbaa !78
  %37 = getelementptr inbounds nuw i8, ptr %34, i64 %36
  store ptr %37, ptr %19, align 8, !tbaa !29
  call void @llvm.lifetime.start.p0(i64 8, ptr %20) #14
  %38 = load ptr, ptr %17, align 8, !tbaa !29
  %39 = getelementptr inbounds nuw %struct.seq_t, ptr %2, i32 0, i32 2
  %40 = load i64, ptr %39, align 8, !tbaa !100
  %41 = sub i64 0, %40
  %42 = getelementptr inbounds i8, ptr %38, i64 %41
  store ptr %42, ptr %20, align 8, !tbaa !29
  call void @llvm.lifetime.start.p0(i64 8, ptr %21) #14
  %43 = load ptr, ptr %11, align 8, !tbaa !29
  %44 = getelementptr inbounds i8, ptr %43, i64 -32
  store ptr %44, ptr %21, align 8, !tbaa !29
  br label %45

45:                                               ; preds = %8
  %46 = load i64, ptr %18, align 8, !tbaa !7
  %47 = load ptr, ptr %11, align 8, !tbaa !29
  %48 = load ptr, ptr %10, align 8, !tbaa !29
  %49 = ptrtoint ptr %47 to i64
  %50 = ptrtoint ptr %48 to i64
  %51 = sub i64 %49, %50
  %52 = icmp ugt i64 %46, %51
  br i1 %52, label %53, label %66

53:                                               ; preds = %45
  br label %54

54:                                               ; preds = %53
  br label %55

55:                                               ; preds = %54
  br label %56

56:                                               ; preds = %55
  br label %57

57:                                               ; preds = %56
  br label %58

58:                                               ; preds = %57
  br label %59

59:                                               ; preds = %58
  br label %60

60:                                               ; preds = %59
  br label %61

61:                                               ; preds = %60
  br label %62

62:                                               ; preds = %61
  br label %63

63:                                               ; preds = %62
  br label %64

64:                                               ; preds = %63
  br label %65

65:                                               ; preds = %64
  store i64 -70, ptr %9, align 8
  store i32 1, ptr %22, align 4
  br label %182

66:                                               ; preds = %45
  br label %67

67:                                               ; preds = %66
  br label %68

68:                                               ; preds = %67
  br label %69

69:                                               ; preds = %68
  %70 = getelementptr inbounds nuw %struct.seq_t, ptr %2, i32 0, i32 0
  %71 = load i64, ptr %70, align 8, !tbaa !78
  %72 = load ptr, ptr %13, align 8, !tbaa !29
  %73 = load ptr, ptr %12, align 8, !tbaa !103
  %74 = load ptr, ptr %73, align 8, !tbaa !29
  %75 = ptrtoint ptr %72 to i64
  %76 = ptrtoint ptr %74 to i64
  %77 = sub i64 %75, %76
  %78 = icmp ugt i64 %71, %77
  br i1 %78, label %79, label %92

79:                                               ; preds = %69
  br label %80

80:                                               ; preds = %79
  br label %81

81:                                               ; preds = %80
  br label %82

82:                                               ; preds = %81
  br label %83

83:                                               ; preds = %82
  br label %84

84:                                               ; preds = %83
  br label %85

85:                                               ; preds = %84
  br label %86

86:                                               ; preds = %85
  br label %87

87:                                               ; preds = %86
  br label %88

88:                                               ; preds = %87
  br label %89

89:                                               ; preds = %88
  br label %90

90:                                               ; preds = %89
  br label %91

91:                                               ; preds = %90
  store i64 -20, ptr %9, align 8
  store i32 1, ptr %22, align 4
  br label %182

92:                                               ; preds = %69
  br label %93

93:                                               ; preds = %92
  br label %94

94:                                               ; preds = %93
  %95 = load ptr, ptr %10, align 8, !tbaa !29
  %96 = load ptr, ptr %21, align 8, !tbaa !29
  %97 = load ptr, ptr %12, align 8, !tbaa !103
  %98 = load ptr, ptr %97, align 8, !tbaa !29
  %99 = getelementptr inbounds nuw %struct.seq_t, ptr %2, i32 0, i32 0
  %100 = load i64, ptr %99, align 8, !tbaa !78
  call void @ZSTD_safecopy(ptr noundef %95, ptr noundef %96, ptr noundef %98, i64 noundef %100, i32 noundef 0)
  %101 = load ptr, ptr %17, align 8, !tbaa !29
  store ptr %101, ptr %10, align 8, !tbaa !29
  %102 = load ptr, ptr %19, align 8, !tbaa !29
  %103 = load ptr, ptr %12, align 8, !tbaa !103
  store ptr %102, ptr %103, align 8, !tbaa !29
  %104 = getelementptr inbounds nuw %struct.seq_t, ptr %2, i32 0, i32 2
  %105 = load i64, ptr %104, align 8, !tbaa !100
  %106 = load ptr, ptr %17, align 8, !tbaa !29
  %107 = load ptr, ptr %14, align 8, !tbaa !29
  %108 = ptrtoint ptr %106 to i64
  %109 = ptrtoint ptr %107 to i64
  %110 = sub i64 %108, %109
  %111 = icmp ugt i64 %105, %110
  br i1 %111, label %112, label %175

112:                                              ; preds = %94
  br label %113

113:                                              ; preds = %112
  %114 = getelementptr inbounds nuw %struct.seq_t, ptr %2, i32 0, i32 2
  %115 = load i64, ptr %114, align 8, !tbaa !100
  %116 = load ptr, ptr %17, align 8, !tbaa !29
  %117 = load ptr, ptr %15, align 8, !tbaa !29
  %118 = ptrtoint ptr %116 to i64
  %119 = ptrtoint ptr %117 to i64
  %120 = sub i64 %118, %119
  %121 = icmp ugt i64 %115, %120
  br i1 %121, label %122, label %135

122:                                              ; preds = %113
  br label %123

123:                                              ; preds = %122
  br label %124

124:                                              ; preds = %123
  br label %125

125:                                              ; preds = %124
  br label %126

126:                                              ; preds = %125
  br label %127

127:                                              ; preds = %126
  br label %128

128:                                              ; preds = %127
  br label %129

129:                                              ; preds = %128
  br label %130

130:                                              ; preds = %129
  br label %131

131:                                              ; preds = %130
  br label %132

132:                                              ; preds = %131
  br label %133

133:                                              ; preds = %132
  br label %134

134:                                              ; preds = %133
  store i64 -20, ptr %9, align 8
  store i32 1, ptr %22, align 4
  br label %182

135:                                              ; preds = %113
  br label %136

136:                                              ; preds = %135
  br label %137

137:                                              ; preds = %136
  %138 = load ptr, ptr %16, align 8, !tbaa !29
  %139 = load ptr, ptr %14, align 8, !tbaa !29
  %140 = load ptr, ptr %20, align 8, !tbaa !29
  %141 = ptrtoint ptr %139 to i64
  %142 = ptrtoint ptr %140 to i64
  %143 = sub i64 %141, %142
  %144 = sub i64 0, %143
  %145 = getelementptr inbounds i8, ptr %138, i64 %144
  store ptr %145, ptr %20, align 8, !tbaa !29
  %146 = load ptr, ptr %20, align 8, !tbaa !29
  %147 = getelementptr inbounds nuw %struct.seq_t, ptr %2, i32 0, i32 1
  %148 = load i64, ptr %147, align 8, !tbaa !99
  %149 = getelementptr inbounds nuw i8, ptr %146, i64 %148
  %150 = load ptr, ptr %16, align 8, !tbaa !29
  %151 = icmp ule ptr %149, %150
  br i1 %151, label %152, label %158

152:                                              ; preds = %137
  %153 = load ptr, ptr %17, align 8, !tbaa !29
  %154 = load ptr, ptr %20, align 8, !tbaa !29
  %155 = getelementptr inbounds nuw %struct.seq_t, ptr %2, i32 0, i32 1
  %156 = load i64, ptr %155, align 8, !tbaa !99
  call void @llvm.memmove.p0.p0.i64(ptr align 1 %153, ptr align 1 %154, i64 %156, i1 false)
  %157 = load i64, ptr %18, align 8, !tbaa !7
  store i64 %157, ptr %9, align 8
  store i32 1, ptr %22, align 4
  br label %182

158:                                              ; preds = %137
  call void @llvm.lifetime.start.p0(i64 8, ptr %23) #14
  %159 = load ptr, ptr %16, align 8, !tbaa !29
  %160 = load ptr, ptr %20, align 8, !tbaa !29
  %161 = ptrtoint ptr %159 to i64
  %162 = ptrtoint ptr %160 to i64
  %163 = sub i64 %161, %162
  store i64 %163, ptr %23, align 8, !tbaa !7
  %164 = load ptr, ptr %17, align 8, !tbaa !29
  %165 = load ptr, ptr %20, align 8, !tbaa !29
  %166 = load i64, ptr %23, align 8, !tbaa !7
  call void @llvm.memmove.p0.p0.i64(ptr align 1 %164, ptr align 1 %165, i64 %166, i1 false)
  %167 = load ptr, ptr %17, align 8, !tbaa !29
  %168 = load i64, ptr %23, align 8, !tbaa !7
  %169 = getelementptr inbounds nuw i8, ptr %167, i64 %168
  store ptr %169, ptr %10, align 8, !tbaa !29
  %170 = load i64, ptr %23, align 8, !tbaa !7
  %171 = getelementptr inbounds nuw %struct.seq_t, ptr %2, i32 0, i32 1
  %172 = load i64, ptr %171, align 8, !tbaa !99
  %173 = sub i64 %172, %170
  store i64 %173, ptr %171, align 8, !tbaa !99
  %174 = load ptr, ptr %14, align 8, !tbaa !29
  store ptr %174, ptr %20, align 8, !tbaa !29
  call void @llvm.lifetime.end.p0(i64 8, ptr %23) #14
  br label %175

175:                                              ; preds = %158, %94
  %176 = load ptr, ptr %10, align 8, !tbaa !29
  %177 = load ptr, ptr %21, align 8, !tbaa !29
  %178 = load ptr, ptr %20, align 8, !tbaa !29
  %179 = getelementptr inbounds nuw %struct.seq_t, ptr %2, i32 0, i32 1
  %180 = load i64, ptr %179, align 8, !tbaa !99
  call void @ZSTD_safecopy(ptr noundef %176, ptr noundef %177, ptr noundef %178, i64 noundef %180, i32 noundef 1)
  %181 = load i64, ptr %18, align 8, !tbaa !7
  store i64 %181, ptr %9, align 8
  store i32 1, ptr %22, align 4
  br label %182

182:                                              ; preds = %175, %152, %134, %91, %65
  call void @llvm.lifetime.end.p0(i64 8, ptr %21) #14
  call void @llvm.lifetime.end.p0(i64 8, ptr %20) #14
  call void @llvm.lifetime.end.p0(i64 8, ptr %19) #14
  call void @llvm.lifetime.end.p0(i64 8, ptr %18) #14
  call void @llvm.lifetime.end.p0(i64 8, ptr %17) #14
  %183 = load i64, ptr %9, align 8
  ret i64 %183
}