; Function Attrs: nofree noinline norecurse nosync nounwind memory(readwrite, inaccessiblemem: none) uwtable
define internal fastcc i64 @ZSTD_execSequenceEnd(ptr noundef %0, ptr noundef %1, ptr noundef readonly byval(%struct.seq_t) align 8 captures(none) %2, ptr noundef nonnull captures(none) %3, ptr noundef %4, ptr noundef %5, ptr noundef %6, ptr noundef readonly captures(address) %7) unnamed_addr #14 {
  %9 = load i64, ptr %2, align 8, !tbaa !95
  %10 = getelementptr inbounds i8, ptr %0, i64 %9
  %11 = getelementptr inbounds nuw i8, ptr %2, i64 8
  %12 = load i64, ptr %11, align 8, !tbaa !111
  %13 = add i64 %12, %9
  %14 = load ptr, ptr %3, align 8, !tbaa !65
  %15 = getelementptr inbounds nuw i8, ptr %14, i64 %9
  %16 = getelementptr inbounds nuw i8, ptr %2, i64 16
  %17 = load i64, ptr %16, align 8, !tbaa !110
  %18 = sub i64 0, %17
  %19 = getelementptr inbounds i8, ptr %10, i64 %18
  %20 = getelementptr inbounds i8, ptr %1, i64 -32
  %21 = ptrtoint ptr %1 to i64
  %22 = ptrtoint ptr %0 to i64
  %23 = sub i64 %21, %22
  %24 = icmp ugt i64 %13, %23
  br i1 %24, label %91, label %25

25:                                               ; preds = %8
  %26 = ptrtoint ptr %4 to i64
  %27 = ptrtoint ptr %14 to i64
  %28 = sub i64 %26, %27
  %29 = icmp ugt i64 %9, %28
  br i1 %29, label %91, label %30

30:                                               ; preds = %25
  %31 = icmp slt i64 %9, 8
  br i1 %31, label %.preheader.i, label %37

.preheader.i:                                     ; preds = %30
  %32 = icmp sgt i64 %9, 0
  br i1 %32, label %.lr.ph69.i, label %ZSTD_safecopy.exit

.lr.ph69.i:                                       ; preds = %.preheader.i, %.lr.ph69.i
  %.05468.i = phi ptr [ %33, %.lr.ph69.i ], [ %14, %.preheader.i ]
  %.05567.i = phi ptr [ %35, %.lr.ph69.i ], [ %0, %.preheader.i ]
  %33 = getelementptr inbounds nuw i8, ptr %.05468.i, i64 1
  %34 = load i8, ptr %.05468.i, align 1, !tbaa !7
  %35 = getelementptr inbounds nuw i8, ptr %.05567.i, i64 1
  store i8 %34, ptr %.05567.i, align 1, !tbaa !7
  %36 = icmp ult ptr %35, %10
  br i1 %36, label %.lr.ph69.i, label %ZSTD_safecopy.exit, !llvm.loop !141

37:                                               ; preds = %30
  %.not19.i = icmp ugt ptr %10, %20
  br i1 %.not19.i, label %50, label %38

38:                                               ; preds = %37
  %39 = load <2 x i64>, ptr %14, align 1, !tbaa !7
  store <2 x i64> %39, ptr %0, align 1, !tbaa !7
  %40 = icmp samesign ult i64 %9, 17
  br i1 %40, label %ZSTD_safecopy.exit, label %41

41:                                               ; preds = %38
  %42 = getelementptr inbounds nuw i8, ptr %0, i64 16
  br label %43

43:                                               ; preds = %43, %41
  %.130.i22.i = phi ptr [ %42, %41 ], [ %48, %43 ]
  %.pn.i23.i = phi ptr [ %14, %41 ], [ %46, %43 ]
  %.1.i24.i = getelementptr inbounds nuw i8, ptr %.pn.i23.i, i64 16
  %44 = load <2 x i64>, ptr %.1.i24.i, align 1, !tbaa !7
  store <2 x i64> %44, ptr %.130.i22.i, align 1, !tbaa !7
  %45 = getelementptr inbounds nuw i8, ptr %.130.i22.i, i64 16
  %46 = getelementptr inbounds nuw i8, ptr %.pn.i23.i, i64 32
  %47 = load <2 x i64>, ptr %46, align 1, !tbaa !7
  store <2 x i64> %47, ptr %45, align 1, !tbaa !7
  %48 = getelementptr inbounds nuw i8, ptr %.130.i22.i, i64 32
  %49 = icmp ult ptr %48, %10
  br i1 %49, label %43, label %ZSTD_safecopy.exit, !llvm.loop !98

50:                                               ; preds = %37
  %.not20.i = icmp ugt ptr %0, %20
  br i1 %.not20.i, label %67, label %51

51:                                               ; preds = %50
  %52 = ptrtoint ptr %20 to i64
  %53 = sub i64 %52, %22
  %54 = getelementptr inbounds i8, ptr %0, i64 %53
  %55 = load <2 x i64>, ptr %14, align 1, !tbaa !7
  store <2 x i64> %55, ptr %0, align 1, !tbaa !7
  %56 = icmp slt i64 %53, 17
  br i1 %56, label %ZSTD_wildcopy.exit.i, label %57

57:                                               ; preds = %51
  %58 = getelementptr inbounds nuw i8, ptr %0, i64 16
  br label %59

59:                                               ; preds = %59, %57
  %.130.i.i = phi ptr [ %58, %57 ], [ %64, %59 ]
  %.pn.i.i = phi ptr [ %14, %57 ], [ %62, %59 ]
  %.1.i.i = getelementptr inbounds nuw i8, ptr %.pn.i.i, i64 16
  %60 = load <2 x i64>, ptr %.1.i.i, align 1, !tbaa !7
  store <2 x i64> %60, ptr %.130.i.i, align 1, !tbaa !7
  %61 = getelementptr inbounds nuw i8, ptr %.130.i.i, i64 16
  %62 = getelementptr inbounds nuw i8, ptr %.pn.i.i, i64 32
  %63 = load <2 x i64>, ptr %62, align 1, !tbaa !7
  store <2 x i64> %63, ptr %61, align 1, !tbaa !7
  %64 = getelementptr inbounds nuw i8, ptr %.130.i.i, i64 32
  %65 = icmp ult ptr %64, %20
  br i1 %65, label %59, label %ZSTD_wildcopy.exit.i, !llvm.loop !98

ZSTD_wildcopy.exit.i:                             ; preds = %59, %51
  %66 = getelementptr inbounds i8, ptr %14, i64 %53
  br label %67

67:                                               ; preds = %ZSTD_wildcopy.exit.i, %50
  %.257.i = phi ptr [ %0, %50 ], [ %54, %ZSTD_wildcopy.exit.i ]
  %.2.i = phi ptr [ %14, %50 ], [ %66, %ZSTD_wildcopy.exit.i ]
  %68 = icmp ult ptr %.257.i, %10
  br i1 %68, label %.lr.ph.i, label %ZSTD_safecopy.exit

.lr.ph.i:                                         ; preds = %67, %.lr.ph.i
  %.366.i = phi ptr [ %69, %.lr.ph.i ], [ %.2.i, %67 ]
  %.35865.i = phi ptr [ %71, %.lr.ph.i ], [ %.257.i, %67 ]
  %69 = getelementptr inbounds nuw i8, ptr %.366.i, i64 1
  %70 = load i8, ptr %.366.i, align 1, !tbaa !7
  %71 = getelementptr inbounds nuw i8, ptr %.35865.i, i64 1
  store i8 %70, ptr %.35865.i, align 1, !tbaa !7
  %72 = icmp ult ptr %71, %10
  br i1 %72, label %.lr.ph.i, label %ZSTD_safecopy.exit, !llvm.loop !142

ZSTD_safecopy.exit:                               ; preds = %43, %.lr.ph.i, %.lr.ph69.i, %.preheader.i, %38, %67
  store ptr %15, ptr %3, align 8, !tbaa !65
  %73 = ptrtoint ptr %10 to i64
  %74 = ptrtoint ptr %5 to i64
  %75 = sub i64 %73, %74
  %76 = icmp ugt i64 %17, %75
  br i1 %76, label %77, label %89

77:                                               ; preds = %ZSTD_safecopy.exit
  %78 = ptrtoint ptr %6 to i64
  %79 = sub i64 %73, %78
  %80 = icmp ugt i64 %17, %79
  br i1 %80, label %91, label %81

81:                                               ; preds = %77
  %82 = ptrtoint ptr %19 to i64
  %.neg = sub i64 %82, %74
  %83 = getelementptr inbounds i8, ptr %7, i64 %.neg
  %84 = getelementptr inbounds nuw i8, ptr %83, i64 %12
  %.not = icmp ugt ptr %84, %7
  br i1 %.not, label %86, label %85

85:                                               ; preds = %81
  tail call void @llvm.memmove.p0.p0.i64(ptr align 1 %10, ptr align 1 %83, i64 %12, i1 false)
  br label %91

86:                                               ; preds = %81
  %diff.neg = sub i64 0, %.neg
  tail call void @llvm.memmove.p0.p0.i64(ptr align 1 %10, ptr align 1 %83, i64 %diff.neg, i1 false)
  %87 = getelementptr inbounds nuw i8, ptr %10, i64 %diff.neg
  %88 = add i64 %.neg, %12
  br label %89

89:                                               ; preds = %86, %ZSTD_safecopy.exit
  %90 = phi i64 [ %88, %86 ], [ %12, %ZSTD_safecopy.exit ]
  %.041 = phi ptr [ %5, %86 ], [ %19, %ZSTD_safecopy.exit ]
  %.040 = phi ptr [ %87, %86 ], [ %10, %ZSTD_safecopy.exit ]
  tail call fastcc void @ZSTD_safecopy(ptr noundef %.040, ptr noundef nonnull %20, ptr noundef %.041, i64 noundef %90, i32 noundef 1)
  br label %91

91:                                               ; preds = %77, %25, %8, %89, %85
  %.0 = phi i64 [ %13, %85 ], [ %13, %89 ], [ -70, %8 ], [ -20, %25 ], [ -20, %77 ]
  ret i64 %.0
}